000000	000006	        Data    6
000001	000006	        Data    6
000006	000000	        Data    0           ; [6]  charIdx
000007	000000	        Data    0           ; [7]  sentCount
000010	000000	        Data    0           ; [8]  wordCount
000011	000000	        Data    0           ; [9]  foundFlag
000012	000000	        Data    0           ; [10] foundSent
000013	000000	        Data    0           ; [11] foundWord
000014	000000	        Data    0           ; [12] scratch
000015	000000	        Data    0           ; [13] scratch2 / wbufIdx
000016	000040	        Data    32          ; [14] curSentBase
000017	000062	        Data    50          ; [15] const_50
000020	000060	        Data    48          ; [16] const_48
000021	000040	        Data    32          ; [17] const_32
000022	000012	        Data    10          ; [18] const_10
000023	000015	        Data    13          ; [19] const_13
000024	000006	        Data    6           ; [20] const_6
000025	000056	        Data    46          ; [21] const_46  '.'
000026	000041	        Data    33          ; [22] const_33  '!'
000027	000077	        Data    63          ; [23] const_63  '?'
000030	000514	        Data    332         ; [24] const_wbuf
000031	001111	        Data    RdLp        ; [25]
000032	001157	        Data    EndSent     ; [26]
000033	001116	        Data    RdChar      ; [27]
000034	001202	        Data    PrSentChk   ; [28]
000035	001214	        Data    PrChar      ; [29]
000036	001364	        Data    SrSentChk   ; [30]
000037	001402	        Data    SkipSp      ; [31]
000040	000000	        Data    0
000041	000000	        Data    0
000042	000000	        Data    0
000043	000000	        Data    0
000044	000000	        Data    0
000045	000000	        Data    0
000046	000000	        Data    0
000047	000000	        Data    0
000050	000000	        Data    0
000051	000000	        Data    0
000052	000000	        Data    0
000053	000000	        Data    0
000054	000000	        Data    0
000055	000000	        Data    0
000056	000000	        Data    0
000057	000000	        Data    0
000060	000000	        Data    0
000061	000000	        Data    0
000062	000000	        Data    0
000063	000000	        Data    0
000064	000000	        Data    0
000065	000000	        Data    0
000066	000000	        Data    0
000067	000000	        Data    0
000070	000000	        Data    0
000071	000000	        Data    0
000072	000000	        Data    0
000073	000000	        Data    0
000074	000000	        Data    0
000075	000000	        Data    0
000076	000000	        Data    0
000077	000000	        Data    0
000100	000000	        Data    0
000101	000000	        Data    0
000102	000000	        Data    0
000103	000000	        Data    0
000104	000000	        Data    0
000105	000000	        Data    0
000106	000000	        Data    0
000107	000000	        Data    0
000110	000000	        Data    0
000111	000000	        Data    0
000112	000000	        Data    0
000113	000000	        Data    0
000114	000000	        Data    0
000115	000000	        Data    0
000116	000000	        Data    0
000117	000000	        Data    0
000120	000000	        Data    0
000121	000000	        Data    0
000122	000000	        Data    0
000123	000000	        Data    0
000124	000000	        Data    0
000125	000000	        Data    0
000126	000000	        Data    0
000127	000000	        Data    0
000130	000000	        Data    0
000131	000000	        Data    0
000132	000000	        Data    0
000133	000000	        Data    0
000134	000000	        Data    0
000135	000000	        Data    0
000136	000000	        Data    0
000137	000000	        Data    0
000140	000000	        Data    0
000141	000000	        Data    0
000142	000000	        Data    0
000143	000000	        Data    0
000144	000000	        Data    0
000145	000000	        Data    0
000146	000000	        Data    0
000147	000000	        Data    0
000150	000000	        Data    0
000151	000000	        Data    0
000152	000000	        Data    0
000153	000000	        Data    0
000154	000000	        Data    0
000155	000000	        Data    0
000156	000000	        Data    0
000157	000000	        Data    0
000160	000000	        Data    0
000161	000000	        Data    0
000162	000000	        Data    0
000163	000000	        Data    0
000164	000000	        Data    0
000165	000000	        Data    0
000166	000000	        Data    0
000167	000000	        Data    0
000170	000000	        Data    0
000171	000000	        Data    0
000172	000000	        Data    0
000173	000000	        Data    0
000174	000000	        Data    0
000175	000000	        Data    0
000176	000000	        Data    0
000177	000000	        Data    0
000200	000000	        Data    0
000201	000000	        Data    0
000202	000000	        Data    0
000203	000000	        Data    0
000204	000000	        Data    0
000205	000000	        Data    0
000206	000000	        Data    0
000207	000000	        Data    0
000210	000000	        Data    0
000211	000000	        Data    0
000212	000000	        Data    0
000213	000000	        Data    0
000214	000000	        Data    0
000215	000000	        Data    0
000216	000000	        Data    0
000217	000000	        Data    0
000220	000000	        Data    0
000221	000000	        Data    0
000222	000000	        Data    0
000223	000000	        Data    0
000224	000000	        Data    0
000225	000000	        Data    0
000226	000000	        Data    0
000227	000000	        Data    0
000230	000000	        Data    0
000231	000000	        Data    0
000232	000000	        Data    0
000233	000000	        Data    0
000234	000000	        Data    0
000235	000000	        Data    0
000236	000000	        Data    0
000237	000000	        Data    0
000240	000000	        Data    0
000241	000000	        Data    0
000242	000000	        Data    0
000243	000000	        Data    0
000244	000000	        Data    0
000245	000000	        Data    0
000246	000000	        Data    0
000247	000000	        Data    0
000250	000000	        Data    0
000251	000000	        Data    0
000252	000000	        Data    0
000253	000000	        Data    0
000254	000000	        Data    0
000255	000000	        Data    0
000256	000000	        Data    0
000257	000000	        Data    0
000260	000000	        Data    0
000261	000000	        Data    0
000262	000000	        Data    0
000263	000000	        Data    0
000264	000000	        Data    0
000265	000000	        Data    0
000266	000000	        Data    0
000267	000000	        Data    0
000270	000000	        Data    0
000271	000000	        Data    0
000272	000000	        Data    0
000273	000000	        Data    0
000274	000000	        Data    0
000275	000000	        Data    0
000276	000000	        Data    0
000277	000000	        Data    0
000300	000000	        Data    0
000301	000000	        Data    0
000302	000000	        Data    0
000303	000000	        Data    0
000304	000000	        Data    0
000305	000000	        Data    0
000306	000000	        Data    0
000307	000000	        Data    0
000310	000000	        Data    0
000311	000000	        Data    0
000312	000000	        Data    0
000313	000000	        Data    0
000314	000000	        Data    0
000315	000000	        Data    0
000316	000000	        Data    0
000317	000000	        Data    0
000320	000000	        Data    0
000321	000000	        Data    0
000322	000000	        Data    0
000323	000000	        Data    0
000324	000000	        Data    0
000325	000000	        Data    0
000326	000000	        Data    0
000327	000000	        Data    0
000330	000000	        Data    0
000331	000000	        Data    0
000332	000000	        Data    0
000333	000000	        Data    0
000334	000000	        Data    0
000335	000000	        Data    0
000336	000000	        Data    0
000337	000000	        Data    0
000340	000000	        Data    0
000341	000000	        Data    0
000342	000000	        Data    0
000343	000000	        Data    0
000344	000000	        Data    0
000345	000000	        Data    0
000346	000000	        Data    0
000347	000000	        Data    0
000350	000000	        Data    0
000351	000000	        Data    0
000352	000000	        Data    0
000353	000000	        Data    0
000354	000000	        Data    0
000355	000000	        Data    0
000356	000000	        Data    0
000357	000000	        Data    0
000360	000000	        Data    0
000361	000000	        Data    0
000362	000000	        Data    0
000363	000000	        Data    0
000364	000000	        Data    0
000365	000000	        Data    0
000366	000000	        Data    0
000367	000000	        Data    0
000370	000000	        Data    0
000371	000000	        Data    0
000372	000000	        Data    0
000373	000000	        Data    0
000374	000000	        Data    0
000375	000000	        Data    0
000376	000000	        Data    0
000377	000000	        Data    0
000400	000000	        Data    0
000401	000000	        Data    0
000402	000000	        Data    0
000403	000000	        Data    0
000404	000000	        Data    0
000405	000000	        Data    0
000406	000000	        Data    0
000407	000000	        Data    0
000410	000000	        Data    0
000411	000000	        Data    0
000412	000000	        Data    0
000413	000000	        Data    0
000414	000000	        Data    0
000415	000000	        Data    0
000416	000000	        Data    0
000417	000000	        Data    0
000420	000000	        Data    0
000421	000000	        Data    0
000422	000000	        Data    0
000423	000000	        Data    0
000424	000000	        Data    0
000425	000000	        Data    0
000426	000000	        Data    0
000427	000000	        Data    0
000430	000000	        Data    0
000431	000000	        Data    0
000432	000000	        Data    0
000433	000000	        Data    0
000434	000000	        Data    0
000435	000000	        Data    0
000436	000000	        Data    0
000437	000000	        Data    0
000440	000000	        Data    0
000441	000000	        Data    0
000442	000000	        Data    0
000443	000000	        Data    0
000444	000000	        Data    0
000445	000000	        Data    0
000446	000000	        Data    0
000447	000000	        Data    0
000450	000000	        Data    0
000451	000000	        Data    0
000452	000000	        Data    0
000453	000000	        Data    0
000454	000000	        Data    0
000455	000000	        Data    0
000456	000000	        Data    0
000457	000000	        Data    0
000460	000000	        Data    0
000461	000000	        Data    0
000462	000000	        Data    0
000463	000000	        Data    0
000464	000000	        Data    0
000465	000000	        Data    0
000466	000000	        Data    0
000467	000000	        Data    0
000470	000000	        Data    0
000471	000000	        Data    0
000472	000000	        Data    0
000473	000000	        Data    0
000474	000000	        Data    0
000475	000000	        Data    0
000476	000000	        Data    0
000477	000000	        Data    0
000500	000000	        Data    0
000501	000000	        Data    0
000502	000000	        Data    0
000503	000000	        Data    0
000504	000000	        Data    0
000514	000000	        Data    0
000515	000000	        Data    0
000516	000000	        Data    0
000517	000000	        Data    0
000520	000000	        Data    0
000521	000000	        Data    0
000522	000000	        Data    0
000523	000000	        Data    0
000524	000000	        Data    0
000525	000000	        Data    0
000526	000000	        Data    0
000527	000000	        Data    0
000530	000000	        Data    0
000531	000000	        Data    0
000532	000000	        Data    0
000533	000000	        Data    0
000534	000000	        Data    0
000535	000000	        Data    0
000536	000000	        Data    0
000537	000000	        Data    0
000540	000000	        Data    0
000541	000000	        Data    0
000542	000000	        Data    0
000543	000000	        Data    0
000544	000000	        Data    0
000545	000000	        Data    0
000546	000000	        Data    0
000547	000000	        Data    0
000550	000000	        Data    0
000551	000000	        Data    0
000620	006000	        LDA     0,0,0
000621	004006	        STR     0,0,6       ; charIdx = 0
000622	004007	        STR     0,0,7       ; sentCount = 0
000623	002021	        LDR     0,0,17      ; R0 = 32  (sentence storage base)
000624	004016	        STR     0,0,14      ; curSentBase = 32
000625	002020	        LDR     0,0,16      ; R0 = 48
000626	014034	        AIR     0,28        ; R0 = 76  ('L')
000627	144001	        OUT     0,1
000630	002020	        LDR     0,0,16      ; R0 = 48
000631	014037	        AIR     0,31        ; R0 = 79
000632	014037	        AIR     0,31        ; R0 = 110
000633	014001	        AIR     0,1         ; R0 = 111 ('o')
000634	144001	        OUT     0,1
000635	002020	        LDR     0,0,16      ; R0 = 48
000636	014037	        AIR     0,31        ; R0 = 79
000637	014022	        AIR     0,18        ; R0 = 97  ('a')
000640	144001	        OUT     0,1
000641	002020	        LDR     0,0,16      ; R0 = 48
000642	014037	        AIR     0,31        ; R0 = 79
000643	014025	        AIR     0,21        ; R0 = 100 ('d')
000644	144001	        OUT     0,1
000645	002021	        LDR     0,0,17      ; R0 = 32 (' ')
000646	144001	        OUT     0,1
000647	002020	        LDR     0,0,16      ; R0 = 48
000650	014037	        AIR     0,31        ; R0 = 79
000651	014027	        AIR     0,23        ; R0 = 102 ('f')
000652	144001	        OUT     0,1
000653	002020	        LDR     0,0,16      ; R0 = 48
000654	014037	        AIR     0,31        ; R0 = 79
000655	014032	        AIR     0,26        ; R0 = 105 ('i')
000656	144001	        OUT     0,1
000657	002020	        LDR     0,0,16      ; R0 = 48
000660	014037	        AIR     0,31        ; R0 = 79
000661	014035	        AIR     0,29        ; R0 = 108 ('l')
000662	144001	        OUT     0,1
000663	002020	        LDR     0,0,16      ; R0 = 48
000664	014037	        AIR     0,31        ; R0 = 79
000665	014026	        AIR     0,22        ; R0 = 101 ('e')
000666	144001	        OUT     0,1
000667	002021	        LDR     0,0,17      ; R0 = 32 (' ')
000670	144001	        OUT     0,1
000671	002020	        LDR     0,0,16      ; R0 = 48
000672	014037	        AIR     0,31        ; R0 = 79
000673	014032	        AIR     0,26        ; R0 = 105 ('i')
000674	144001	        OUT     0,1
000675	002020	        LDR     0,0,16      ; R0 = 48
000676	014037	        AIR     0,31        ; R0 = 79
000677	014037	        AIR     0,31        ; R0 = 110 ('n')
000700	144001	        OUT     0,1
000701	002020	        LDR     0,0,16      ; R0 = 48
000702	014037	        AIR     0,31        ; R0 = 79
000703	014037	        AIR     0,31        ; R0 = 110
000704	014006	        AIR     0,6         ; R0 = 116 ('t')
000705	144001	        OUT     0,1
000706	002020	        LDR     0,0,16      ; R0 = 48
000707	014037	        AIR     0,31        ; R0 = 79
000710	014037	        AIR     0,31        ; R0 = 110
000711	014001	        AIR     0,1         ; R0 = 111 ('o')
000712	144001	        OUT     0,1
000713	002021	        LDR     0,0,17      ; R0 = 32 (' ')
000714	144001	        OUT     0,1
000715	002020	        LDR     0,0,16      ; R0 = 48
000716	014037	        AIR     0,31        ; R0 = 79
000717	014024	        AIR     0,20        ; R0 = 99  ('c')
000720	144001	        OUT     0,1
000721	002020	        LDR     0,0,16      ; R0 = 48
000722	014037	        AIR     0,31        ; R0 = 79
000723	014022	        AIR     0,18        ; R0 = 97  ('a')
000724	144001	        OUT     0,1
000725	002020	        LDR     0,0,16      ; R0 = 48
000726	014037	        AIR     0,31        ; R0 = 79
000727	014037	        AIR     0,31        ; R0 = 110
000730	014004	        AIR     0,4         ; R0 = 114 ('r')
000731	144001	        OUT     0,1
000732	002020	        LDR     0,0,16      ; R0 = 48
000733	014037	        AIR     0,31        ; R0 = 79
000734	014025	        AIR     0,21        ; R0 = 100 ('d')
000735	144001	        OUT     0,1
000736	002021	        LDR     0,0,17      ; R0 = 32 (' ')
000737	144001	        OUT     0,1
000740	002020	        LDR     0,0,16      ; R0 = 48
000741	014037	        AIR     0,31        ; R0 = 79
000742	014037	        AIR     0,31        ; R0 = 110
000743	014004	        AIR     0,4         ; R0 = 114 ('r')
000744	144001	        OUT     0,1
000745	002020	        LDR     0,0,16      ; R0 = 48
000746	014037	        AIR     0,31        ; R0 = 79
000747	014026	        AIR     0,22        ; R0 = 101 ('e')
000750	144001	        OUT     0,1
000751	002020	        LDR     0,0,16      ; R0 = 48
000752	014037	        AIR     0,31        ; R0 = 79
000753	014022	        AIR     0,18        ; R0 = 97  ('a')
000754	144001	        OUT     0,1
000755	002020	        LDR     0,0,16      ; R0 = 48
000756	014037	        AIR     0,31        ; R0 = 79
000757	014025	        AIR     0,21        ; R0 = 100 ('d')
000760	144001	        OUT     0,1
000761	002020	        LDR     0,0,16      ; R0 = 48
000762	014037	        AIR     0,31        ; R0 = 79
000763	014026	        AIR     0,22        ; R0 = 101 ('e')
000764	144001	        OUT     0,1
000765	002020	        LDR     0,0,16      ; R0 = 48
000766	014037	        AIR     0,31        ; R0 = 79
000767	014037	        AIR     0,31        ; R0 = 110
000770	014004	        AIR     0,4         ; R0 = 114 ('r')
000771	144001	        OUT     0,1
000772	002020	        LDR     0,0,16      ; R0 = 48
000773	016004	        SIR     0,4         ; R0 = 44  (',')
000774	144001	        OUT     0,1
000775	002021	        LDR     0,0,17      ; R0 = 32 (' ')
000776	144001	        OUT     0,1
000777	002020	        LDR     0,0,16      ; R0 = 48
001000	014037	        AIR     0,31        ; R0 = 79
001001	014037	        AIR     0,31        ; R0 = 110
001002	014006	        AIR     0,6         ; R0 = 116 ('t')
001003	144001	        OUT     0,1
001004	002020	        LDR     0,0,16      ; R0 = 48
001005	014037	        AIR     0,31        ; R0 = 79
001006	014031	        AIR     0,25        ; R0 = 104 ('h')
001007	144001	        OUT     0,1
001010	002020	        LDR     0,0,16      ; R0 = 48
001011	014037	        AIR     0,31        ; R0 = 79
001012	014026	        AIR     0,22        ; R0 = 101 ('e')
001013	144001	        OUT     0,1
001014	002020	        LDR     0,0,16      ; R0 = 48
001015	014037	        AIR     0,31        ; R0 = 79
001016	014037	        AIR     0,31        ; R0 = 110 ('n')
001017	144001	        OUT     0,1
001020	002021	        LDR     0,0,17      ; R0 = 32 (' ')
001021	144001	        OUT     0,1
001022	002020	        LDR     0,0,16      ; R0 = 48
001023	014037	        AIR     0,31        ; R0 = 79
001024	014037	        AIR     0,31        ; R0 = 110
001025	014002	        AIR     0,2         ; R0 = 112 ('p')
001026	144001	        OUT     0,1
001027	002020	        LDR     0,0,16      ; R0 = 48
001030	014037	        AIR     0,31        ; R0 = 79
001031	014037	        AIR     0,31        ; R0 = 110
001032	014004	        AIR     0,4         ; R0 = 114 ('r')
001033	144001	        OUT     0,1
001034	002020	        LDR     0,0,16      ; R0 = 48
001035	014037	        AIR     0,31        ; R0 = 79
001036	014026	        AIR     0,22        ; R0 = 101 ('e')
001037	144001	        OUT     0,1
001040	002020	        LDR     0,0,16      ; R0 = 48
001041	014037	        AIR     0,31        ; R0 = 79
001042	014037	        AIR     0,31        ; R0 = 110
001043	014005	        AIR     0,5         ; R0 = 115 ('s')
001044	144001	        OUT     0,1
001045	002020	        LDR     0,0,16      ; R0 = 48
001046	014037	        AIR     0,31        ; R0 = 79
001047	014037	        AIR     0,31        ; R0 = 110
001050	014005	        AIR     0,5         ; R0 = 115 ('s')
001051	144001	        OUT     0,1
001052	002021	        LDR     0,0,17      ; R0 = 32 (' ')
001053	144001	        OUT     0,1
001054	002020	        LDR     0,0,16      ; R0 = 48
001055	014025	        AIR     0,21        ; R0 = 69  ('E')
001056	144001	        OUT     0,1
001057	002020	        LDR     0,0,16      ; R0 = 48
001060	014037	        AIR     0,31        ; R0 = 79
001061	014037	        AIR     0,31        ; R0 = 110 ('n')
001062	144001	        OUT     0,1
001063	002020	        LDR     0,0,16      ; R0 = 48
001064	014037	        AIR     0,31        ; R0 = 79
001065	014037	        AIR     0,31        ; R0 = 110
001066	014006	        AIR     0,6         ; R0 = 116 ('t')
001067	144001	        OUT     0,1
001070	002020	        LDR     0,0,16      ; R0 = 48
001071	014037	        AIR     0,31        ; R0 = 79
001072	014026	        AIR     0,22        ; R0 = 101 ('e')
001073	144001	        OUT     0,1
001074	002020	        LDR     0,0,16      ; R0 = 48
001075	014037	        AIR     0,31        ; R0 = 79
001076	014037	        AIR     0,31        ; R0 = 110
001077	014004	        AIR     0,4         ; R0 = 114 ('r')
001100	144001	        OUT     0,1
001101	002020	        LDR     0,0,16      ; R0 = 48
001102	014012	        AIR     0,10        ; R0 = 58  (':')
001103	144001	        OUT     0,1
001104	002023	        LDR     0,0,19      ; R0 = 13 (CR)
001105	144001	        OUT     0,1
001106	002022	        LDR     0,0,18      ; R0 = 10 (LF)
001107	144001	        OUT     0,1
001110	142000	        IN      0,0         ; wait for user to press Enter
001111	002007	        LDR     0,0,7       ; R0 = sentCount
001112	002424	        LDR     1,0,20      ; R1 = 6
001113	164100	        TRR     0,1
001114	102134	        LDX     1,28        ; IX1 -> PrSentChk
001115	025500	        JCC     3,1,0       ; sentCount == 6  =>  go to print phase
001116	142002	        IN      0,2         ; R0 = char from card reader
001117	002423	        LDR     1,0,19      ; R1 = 13 (CR)
001120	164100	        TRR     0,1
001121	102133	        LDX     1,27        ; IX1 -> RdChar
001122	025500	        JCC     3,1,0       ; CR  =>  skip
001123	002422	        LDR     1,0,18      ; R1 = 10 (LF)
001124	164100	        TRR     0,1
001125	102133	        LDX     1,27        ; IX1 -> RdChar
001126	025500	        JCC     3,1,0       ; LF  =>  skip
001127	004015	        STR     0,0,13      ; scratch2 = char  (save before R0 clobbered)
001130	003016	        LDR     2,0,14      ; R2 = curSentBase
001131	011006	        AMR     2,0,6       ; R2 = curSentBase + charIdx
001132	005014	        STR     2,0,12      ; scratch = store target address
001133	102114	        LDX     1,12        ; IX1 = target address
001134	002015	        LDR     0,0,13      ; R0 = char  (reload)
001135	004100	        STR     0,1,0       ; mem[curSentBase + charIdx] = char
001136	002425	        LDR     1,0,21      ; R1 = 46 ('.')
001137	164100	        TRR     0,1
001140	102132	        LDX     1,26        ; IX1 -> EndSent
001141	025500	        JCC     3,1,0       ; '.'  =>  sentence done
001142	002426	        LDR     1,0,22      ; R1 = 33 ('!')
001143	164100	        TRR     0,1
001144	102132	        LDX     1,26        ; IX1 -> EndSent
001145	025500	        JCC     3,1,0       ; '!'  =>  sentence done
001146	002427	        LDR     1,0,23      ; R1 = 63 ('?')
001147	164100	        TRR     0,1
001150	102132	        LDX     1,26        ; IX1 -> EndSent
001151	025500	        JCC     3,1,0       ; '?'  =>  sentence done
001152	002006	        LDR     0,0,6
001153	014001	        AIR     0,1
001154	004006	        STR     0,0,6       ; charIdx++
001155	102133	        LDX     1,27        ; IX1 -> RdChar
001156	026100	        JMA     1,0
001157	002006	        LDR     0,0,6
001160	014001	        AIR     0,1
001161	004006	        STR     0,0,6       ; charIdx++  (step past terminator)
001162	003016	        LDR     2,0,14      ; R2 = curSentBase
001163	011006	        AMR     2,0,6       ; R2 = curSentBase + charIdx
001164	005014	        STR     2,0,12      ; scratch = address after terminator
001165	102114	        LDX     1,12
001166	006000	        LDA     0,0,0
001167	004100	        STR     0,1,0       ; write null terminator
001170	002016	        LDR     0,0,14      ; R0 = curSentBase
001171	010017	        AMR     0,0,15      ; R0 = curSentBase + 50
001172	004016	        STR     0,0,14      ; curSentBase += 50
001173	006000	        LDA     0,0,0
001174	004006	        STR     0,0,6       ; charIdx = 0
001175	002007	        LDR     0,0,7
001176	014001	        AIR     0,1
001177	004007	        STR     0,0,7       ; sentCount++
001200	102131	        LDX     1,25        ; IX1 -> RdLp
001201	026100	        JMA     1,0
001202	006000	        LDA     0,0,0
001203	004007	        STR     0,0,7       ; sentCount = 0
001204	002021	        LDR     0,0,17      ; R0 = 32
001205	004016	        STR     0,0,14      ; curSentBase = 32
001206	004006	        STR     0,0,6       ; charIdx = 0
001207	002007	        LDR     0,0,7       ; R0 = sentCount
001210	002424	        LDR     1,0,20      ; R1 = 6
001211	164100	        TRR     0,1
001212	102136	        LDX     1,30        ; IX1 -> SrSentChk  (move to search phase)
001213	025500	        JCC     3,1,0       ; sentCount == 6  =>  done printing
001214	003016	        LDR     2,0,14      ; R2 = curSentBase
001215	011006	        AMR     2,0,6       ; R2 = curSentBase + charIdx
001216	005014	        STR     2,0,12      ; scratch = address
001217	102114	        LDX     1,12
001220	002100	        LDR     0,1,0       ; R0 = mem[curSentBase + charIdx]
001221	006400	        LDA     1,0,0
001222	164100	        TRR     0,1
001223	102135	        LDX     1,29        ; IX1 -> PrChar  (used as loop-back)
001224	025500	        JCC     3,1,0       ; null  =>  end of sentence
001225	144001	        OUT     0,1
001226	002006	        LDR     0,0,6
001227	014001	        AIR     0,1
001230	004006	        STR     0,0,6       ; charIdx++
001231	102135	        LDX     1,29        ; IX1 -> PrChar
001232	026100	        JMA     1,0
001233	002023	        LDR     0,0,19      ; R0 = 13 (CR)
001234	144001	        OUT     0,1
001235	002022	        LDR     0,0,18      ; R0 = 10 (LF)
001236	144001	        OUT     0,1
001237	002016	        LDR     0,0,14      ; R0 = curSentBase
001240	010017	        AMR     0,0,15      ; R0 += 50
001241	004016	        STR     0,0,14      ; curSentBase += 50
001242	006000	        LDA     0,0,0
001243	004006	        STR     0,0,6       ; charIdx = 0
001244	002007	        LDR     0,0,7
001245	014001	        AIR     0,1
001246	004007	        STR     0,0,7       ; sentCount++
001247	102134	        LDX     1,28        ; IX1 -> PrSentChk  (check at top re-initialises nothing)
001250	026100	        JMA     1,0
001251	002020	        LDR     0,0,16      ; R0 = 48
001252	014025	        AIR     0,21        ; R0 = 69  ('E')
001253	144001	        OUT     0,1
001254	002020	        LDR     0,0,16      ; R0 = 48
001255	014037	        AIR     0,31        ; R0 = 79
001256	014037	        AIR     0,31        ; R0 = 110 ('n')
001257	144001	        OUT     0,1
001260	002020	        LDR     0,0,16      ; R0 = 48
001261	014037	        AIR     0,31        ; R0 = 79
001262	014037	        AIR     0,31        ; R0 = 110
001263	014006	        AIR     0,6         ; R0 = 116 ('t')
001264	144001	        OUT     0,1
001265	002020	        LDR     0,0,16      ; R0 = 48
001266	014037	        AIR     0,31        ; R0 = 79
001267	014026	        AIR     0,22        ; R0 = 101 ('e')
001270	144001	        OUT     0,1
001271	014015	        AIR     0,13        ; R0 = 114 ('r')
001272	144001	        OUT     0,1
001273	002021	        LDR     0,0,17      ; R0 = 32 (' ')
001274	144001	        OUT     0,1
001275	002020	        LDR     0,0,16      ; R0 = 48
001276	014037	        AIR     0,31        ; R0 = 79
001277	014037	        AIR     0,31        ; R0 = 110
001300	014011	        AIR     0,9         ; R0 = 119 ('w')
001301	144001	        OUT     0,1
001302	002020	        LDR     0,0,16      ; R0 = 48
001303	014037	        AIR     0,31        ; R0 = 79
001304	014037	        AIR     0,31        ; R0 = 110
001305	014001	        AIR     0,1         ; R0 = 111 ('o')
001306	144001	        OUT     0,1
001307	002020	        LDR     0,0,16      ; R0 = 48
001310	014037	        AIR     0,31        ; R0 = 79
001311	014037	        AIR     0,31        ; R0 = 110
001312	014004	        AIR     0,4         ; R0 = 114 ('r')
001313	144001	        OUT     0,1
001314	002020	        LDR     0,0,16      ; R0 = 48
001315	014037	        AIR     0,31        ; R0 = 79
001316	014025	        AIR     0,21        ; R0 = 100 ('d')
001317	144001	        OUT     0,1
001320	002020	        LDR     0,0,16      ; R0 = 48
001321	014012	        AIR     0,10        ; R0 = 58  (':')
001322	144001	        OUT     0,1
001323	002023	        LDR     0,0,19      ; R0 = 13 (CR)
001324	144001	        OUT     0,1
001325	002022	        LDR     0,0,18      ; R0 = 10 (LF)
001326	144001	        OUT     0,1
001327	006000	        LDA     0,0,0
001330	004006	        STR     0,0,6       ; charIdx = 0
001331	142000	        IN      0,0         ; R0 = char from keyboard
001332	002423	        LDR     1,0,19      ; R1 = 13 (CR)
001333	164100	        TRR     0,1
001334	102136	        LDX     1,30        ; IX1 -> SrSentChk
001335	025500	        JCC     3,1,0       ; CR  =>  done, go search
001336	002422	        LDR     1,0,18      ; R1 = 10 (LF)
001337	164100	        TRR     0,1
001340	102136	        LDX     1,30        ; IX1 -> SrSentChk
001341	025500	        JCC     3,1,0       ; LF  =>  done, go search
001342	004015	        STR     0,0,13      ; scratch2 = char
001343	003030	        LDR     2,0,24      ; R2 = wbuf base (332)
001344	011006	        AMR     2,0,6       ; R2 = wbuf + charIdx
001345	005014	        STR     2,0,12      ; scratch = target address
001346	102114	        LDX     1,12
001347	002015	        LDR     0,0,13      ; R0 = char
001350	004100	        STR     0,1,0       ; wbuf[charIdx] = char
001351	002006	        LDR     0,0,6
001352	014001	        AIR     0,1
001353	004006	        STR     0,0,6       ; charIdx++
001354	102137	        LDX     1,31        ; IX1 -> SkipSp  (reused as RdWord loopback below)
001355	026100	        JMA     1,0
001356	003030	        LDR     2,0,24      ; R2 = wbuf base
001357	011006	        AMR     2,0,6       ; R2 = wbuf + charIdx
001360	005014	        STR     2,0,12
001361	102114	        LDX     1,12
001362	006000	        LDA     0,0,0
001363	004100	        STR     0,1,0       ; null terminator
001364	006000	        LDA     0,0,0
001365	004007	        STR     0,0,7       ; sentCount = 0
001366	004011	        STR     0,0,9       ; foundFlag = 0
001367	002021	        LDR     0,0,17      ; R0 = 32
001370	004016	        STR     0,0,14      ; curSentBase = 32
001371	002007	        LDR     0,0,7       ; R0 = sentCount
001372	002424	        LDR     1,0,20      ; R1 = 6
001373	164100	        TRR     0,1
001374	102137	        LDX     1,31        ; IX1 -> SkipSp  (repurposed as Done jump below)
001375	025500	        JCC     3,1,0       ; sentCount == 6  =>  all sentences searched, print result
001376	006000	        LDA     0,0,0
001377	004006	        STR     0,0,6       ; charIdx = 0
001400	006001	        LDA     0,0,1
001401	004010	        STR     0,0,8       ; wordCount = 1
001402	003016	        LDR     2,0,14      ; R2 = curSentBase
001403	011006	        AMR     2,0,6       ; R2 = curSentBase + charIdx
001404	005014	        STR     2,0,12
001405	102114	        LDX     1,12
001406	002100	        LDR     0,1,0       ; R0 = char at current position
001407	006400	        LDA     1,0,0
001410	164100	        TRR     0,1
001411	102136	        LDX     1,30        ; IX1 -> SrNextSent  (end of sentence, try next)
001412	025500	        JCC     3,1,0       ; null  =>  end of sentence
001413	002421	        LDR     1,0,17      ; R1 = 32 (space)
001414	164100	        TRR     0,1
001415	102137	        LDX     1,31        ; IX1 -> SkipSp (not space: go compare)
001416	025500	        JCC     3,1,0       ; not a space  =>  start comparing word
001417	002006	        LDR     0,0,6
001420	014001	        AIR     0,1
001421	004006	        STR     0,0,6       ; charIdx++  (skip the space)
001422	102137	        LDX     1,31        ; IX1 -> SkipSp
001423	026100	        JMA     1,0
001424	006000	        LDA     0,0,0
001425	004015	        STR     0,0,13      ; wbufIdx = 0
001426	003016	        LDR     2,0,14      ; R2 = curSentBase
001427	011006	        AMR     2,0,6       ; R2 = curSentBase + charIdx
001430	005014	        STR     2,0,12
001431	102114	        LDX     1,12
001432	002100	        LDR     0,1,0       ; R0 = sentence char
001433	003030	        LDR     2,0,24      ; R2 = wbuf base
001434	011015	        AMR     2,0,13      ; R2 = wbuf + wbufIdx
001435	005014	        STR     2,0,12
001436	102114	        LDX     1,12
001437	002500	        LDR     1,1,0       ; R1 = wbuf char
001440	007000	        LDA     2,0,0
001441	164600	        TRR     1,2
001442	102136	        LDX     1,30        ; IX1 -> SrNextSent  (repurposed; ChkBound is inline)
001443	025500	        JCC     3,1,0       ; wbuf char == 0  =>  check word boundary
001444	164100	        TRR     0,1
001445	102136	        LDX     1,30        ; IX1 -> SrNextSent  (repurposed; NoMatch inline)
001446	025500	        JCC     3,1,0       ; chars equal  =>  advance both pointers
001447	102137	        LDX     1,31        ; IX1 -> SkipSp  (repurposed as NoMatch jump)
001450	026100	        JMA     1,0         ; chars differ  =>  skip to next word
001451	002006	        LDR     0,0,6       ; (chars matched: advance charIdx and wbufIdx)
001452	014001	        AIR     0,1
001453	004006	        STR     0,0,6
001454	002015	        LDR     0,0,13
001455	014001	        AIR     0,1
001456	004015	        STR     0,0,13
001457	102136	        LDX     1,30        ; IX1 -> SrNextSent  (repurposed as CmpLoop jump)
001460	026100	        JMA     1,0
001461	006400	        LDA     1,0,0
001462	164100	        TRR     0,1
001463	102136	        LDX     1,30        ; IX1 -> SrNextSent  (repurposed as Found jump)
001464	025500	        JCC     3,1,0       ; sentence char null  =>  match at end of sentence
001465	002421	        LDR     1,0,17      ; R1 = 32 (space)
001466	164100	        TRR     0,1
001467	102136	        LDX     1,30        ; IX1 -> SrNextSent  (repurposed as Found jump)
001470	025500	        JCC     3,1,0       ; space  =>  word boundary match
001471	002425	        LDR     1,0,21      ; R1 = 46 ('.')
001472	164100	        TRR     0,1
001473	102136	        LDX     1,30        ; IX1 -> SrNextSent  (repurposed as Found jump)
001474	025500	        JCC     3,1,0
001475	002426	        LDR     1,0,22      ; R1 = 33 ('!')
001476	164100	        TRR     0,1
001477	102136	        LDX     1,30        ; IX1 -> SrNextSent  (repurposed as Found jump)
001500	025500	        JCC     3,1,0
001501	002427	        LDR     1,0,23      ; R1 = 63 ('?')
001502	164100	        TRR     0,1
001503	102136	        LDX     1,30        ; IX1 -> SrNextSent  (repurposed as Found jump)
001504	025500	        JCC     3,1,0       ; sentence terminator  =>  match
001505	003016	        LDR     2,0,14      ; R2 = curSentBase
001506	011006	        AMR     2,0,6       ; R2 = curSentBase + charIdx
001507	005014	        STR     2,0,12
001510	102114	        LDX     1,12
001511	002100	        LDR     0,1,0       ; R0 = current char
001512	006400	        LDA     1,0,0
001513	164100	        TRR     0,1
001514	102136	        LDX     1,30        ; IX1 -> SrNextSent
001515	025500	        JCC     3,1,0       ; null  =>  end of sentence
001516	002421	        LDR     1,0,17      ; R1 = space
001517	164100	        TRR     0,1
001520	102136	        LDX     1,30        ; IX1 -> SrNextSent  (IncWord is inline below)
001521	025500	        JCC     3,1,0       ; space  =>  end of this word
001522	002006	        LDR     0,0,6
001523	014001	        AIR     0,1
001524	004006	        STR     0,0,6       ; charIdx++
001525	102136	        LDX     1,30        ; IX1 -> SrNextSent  (repurposed as NoMatch loopback)
001526	026100	        JMA     1,0
001527	002006	        LDR     0,0,6
001530	014001	        AIR     0,1
001531	004006	        STR     0,0,6       ; charIdx++  (step past space)
001532	002010	        LDR     0,0,8
001533	014001	        AIR     0,1
001534	004010	        STR     0,0,8       ; wordCount++
001535	102137	        LDX     1,31        ; IX1 -> SkipSp
001536	026100	        JMA     1,0
001537	002016	        LDR     0,0,14      ; R0 = curSentBase
001540	010017	        AMR     0,0,15      ; R0 += 50
001541	004016	        STR     0,0,14      ; curSentBase += 50
001542	002007	        LDR     0,0,7
001543	014001	        AIR     0,1
001544	004007	        STR     0,0,7       ; sentCount++
001545	102136	        LDX     1,30        ; IX1 -> SrSentChk  (will reinit loop vars)
001546	026100	        JMA     1,0
001547	006001	        LDA     0,0,1
001550	004011	        STR     0,0,9       ; foundFlag = 1
001551	002007	        LDR     0,0,7
001552	014001	        AIR     0,1         ; 1-based sentence number
001553	004012	        STR     0,0,10      ; foundSent
001554	002010	        LDR     0,0,8
001555	004013	        STR     0,0,11      ; foundWord
001556	002011	        LDR     0,0,9       ; R0 = foundFlag
001557	006400	        LDA     1,0,0
001560	164100	        TRR     0,1
001561	102137	        LDX     1,31        ; IX1 -> SkipSp  (repurposed as NotFound jump)
001562	025500	        JCC     3,1,0       ; foundFlag == 0  =>  not found
001563	002020	        LDR     0,0,16      ; R0 = 48
001564	014037	        AIR     0,31        ; R0 = 79
001565	014010	        AIR     0,8         ; R0 = 87  ('W')
001566	144001	        OUT     0,1
001567	002020	        LDR     0,0,16      ; R0 = 48
001570	014037	        AIR     0,31        ; R0 = 79
001571	014037	        AIR     0,31        ; R0 = 110
001572	014001	        AIR     0,1         ; R0 = 111 ('o')
001573	144001	        OUT     0,1
001574	002020	        LDR     0,0,16      ; R0 = 48
001575	014037	        AIR     0,31        ; R0 = 79
001576	014037	        AIR     0,31        ; R0 = 110
001577	014004	        AIR     0,4         ; R0 = 114 ('r')
001600	144001	        OUT     0,1
001601	002020	        LDR     0,0,16      ; R0 = 48
001602	014037	        AIR     0,31        ; R0 = 79
001603	014025	        AIR     0,21        ; R0 = 100 ('d')
001604	144001	        OUT     0,1
001605	002020	        LDR     0,0,16      ; R0 = 48
001606	014012	        AIR     0,10        ; R0 = 58  (':')
001607	144001	        OUT     0,1
001610	002021	        LDR     0,0,17      ; R0 = 32 (' ')
001611	144001	        OUT     0,1
001612	006000	        LDA     0,0,0
001613	004006	        STR     0,0,6       ; charIdx = 0
001614	003030	        LDR     2,0,24      ; R2 = wbuf base
001615	011006	        AMR     2,0,6       ; R2 = wbuf + charIdx
001616	005014	        STR     2,0,12
001617	102114	        LDX     1,12
001620	002100	        LDR     0,1,0       ; R0 = wbuf[charIdx]
001621	006400	        LDA     1,0,0
001622	164100	        TRR     0,1
001623	102137	        LDX     1,31        ; IX1 -> SkipSp  (repurposed as PrSentNum jump)
001624	025500	        JCC     3,1,0       ; null  =>  done printing word
001625	144001	        OUT     0,1
001626	002006	        LDR     0,0,6
001627	014001	        AIR     0,1
001630	004006	        STR     0,0,6       ; charIdx++
001631	102137	        LDX     1,31        ; IX1 -> SkipSp  (repurposed as PrWordLoop jump)
001632	026100	        JMA     1,0
001633	002023	        LDR     0,0,19      ; R0 = 13 (CR)
001634	144001	        OUT     0,1
001635	002022	        LDR     0,0,18      ; R0 = 10 (LF)
001636	144001	        OUT     0,1
001637	002020	        LDR     0,0,16      ; R0 = 48
001640	014037	        AIR     0,31        ; R0 = 79
001641	014004	        AIR     0,4         ; R0 = 83  ('S')
001642	144001	        OUT     0,1
001643	002020	        LDR     0,0,16      ; R0 = 48
001644	014037	        AIR     0,31        ; R0 = 79
001645	014026	        AIR     0,22        ; R0 = 101 ('e')
001646	144001	        OUT     0,1
001647	002020	        LDR     0,0,16      ; R0 = 48
001650	014037	        AIR     0,31        ; R0 = 79
001651	014037	        AIR     0,31        ; R0 = 110 ('n')
001652	144001	        OUT     0,1
001653	002020	        LDR     0,0,16      ; R0 = 48
001654	014037	        AIR     0,31        ; R0 = 79
001655	014037	        AIR     0,31        ; R0 = 110
001656	014006	        AIR     0,6         ; R0 = 116 ('t')
001657	144001	        OUT     0,1
001660	002020	        LDR     0,0,16      ; R0 = 48
001661	014037	        AIR     0,31        ; R0 = 79
001662	014026	        AIR     0,22        ; R0 = 101 ('e')
001663	144001	        OUT     0,1
001664	002020	        LDR     0,0,16      ; R0 = 48
001665	014037	        AIR     0,31        ; R0 = 79
001666	014037	        AIR     0,31        ; R0 = 110 ('n')
001667	144001	        OUT     0,1
001670	002020	        LDR     0,0,16      ; R0 = 48
001671	014037	        AIR     0,31        ; R0 = 79
001672	014024	        AIR     0,20        ; R0 = 99  ('c')
001673	144001	        OUT     0,1
001674	002020	        LDR     0,0,16      ; R0 = 48
001675	014037	        AIR     0,31        ; R0 = 79
001676	014026	        AIR     0,22        ; R0 = 101 ('e')
001677	144001	        OUT     0,1
001700	002020	        LDR     0,0,16      ; R0 = 48
001701	014012	        AIR     0,10        ; R0 = 58  (':')
001702	144001	        OUT     0,1
001703	002021	        LDR     0,0,17      ; R0 = 32 (' ')
001704	144001	        OUT     0,1
001705	002012	        LDR     0,0,10      ; R0 = foundSent (1-6)
001706	010020	        AMR     0,0,16      ; R0 += 48  =>  ASCII digit
001707	144001	        OUT     0,1
001710	002023	        LDR     0,0,19      ; R0 = 13 (CR)
001711	144001	        OUT     0,1
001712	002022	        LDR     0,0,18      ; R0 = 10 (LF)
001713	144001	        OUT     0,1
001714	002020	        LDR     0,0,16      ; R0 = 48
001715	014037	        AIR     0,31        ; R0 = 79
001716	014010	        AIR     0,8         ; R0 = 87  ('W')
001717	144001	        OUT     0,1
001720	002020	        LDR     0,0,16      ; R0 = 48
001721	014037	        AIR     0,31        ; R0 = 79
001722	014037	        AIR     0,31        ; R0 = 110
001723	014001	        AIR     0,1         ; R0 = 111 ('o')
001724	144001	        OUT     0,1
001725	002020	        LDR     0,0,16      ; R0 = 48
001726	014037	        AIR     0,31        ; R0 = 79
001727	014037	        AIR     0,31        ; R0 = 110
001730	014004	        AIR     0,4         ; R0 = 114 ('r')
001731	144001	        OUT     0,1
001732	002020	        LDR     0,0,16      ; R0 = 48
001733	014037	        AIR     0,31        ; R0 = 79
001734	014025	        AIR     0,21        ; R0 = 100 ('d')
001735	144001	        OUT     0,1
001736	002020	        LDR     0,0,16      ; R0 = 48
001737	014012	        AIR     0,10        ; R0 = 58  (':')
001740	144001	        OUT     0,1
001741	002021	        LDR     0,0,17      ; R0 = 32 (' ')
001742	144001	        OUT     0,1
001743	002013	        LDR     0,0,11      ; R0 = foundWord
001744	010020	        AMR     0,0,16      ; R0 += 48  =>  ASCII digit
001745	144001	        OUT     0,1
001746	002023	        LDR     0,0,19      ; R0 = 13 (CR)
001747	144001	        OUT     0,1
001750	002022	        LDR     0,0,18      ; R0 = 10 (LF)
001751	144001	        OUT     0,1
001752	000000	        HLT
001753	002020	        LDR     0,0,16      ; R0 = 48
001754	014036	        AIR     0,30        ; R0 = 78  ('N')
001755	144001	        OUT     0,1
001756	002020	        LDR     0,0,16      ; R0 = 48
001757	014037	        AIR     0,31        ; R0 = 79
001760	014037	        AIR     0,31        ; R0 = 110
001761	014001	        AIR     0,1         ; R0 = 111 ('o')
001762	144001	        OUT     0,1
001763	002020	        LDR     0,0,16      ; R0 = 48
001764	014037	        AIR     0,31        ; R0 = 79
001765	014037	        AIR     0,31        ; R0 = 110
001766	014006	        AIR     0,6         ; R0 = 116 ('t')
001767	144001	        OUT     0,1
001770	002021	        LDR     0,0,17      ; R0 = 32 (' ')
001771	144001	        OUT     0,1
001772	002020	        LDR     0,0,16      ; R0 = 48
001773	014037	        AIR     0,31        ; R0 = 79
001774	014027	        AIR     0,23        ; R0 = 102 ('f')
001775	144001	        OUT     0,1
001776	002020	        LDR     0,0,16      ; R0 = 48
001777	014037	        AIR     0,31        ; R0 = 79
002000	014037	        AIR     0,31        ; R0 = 110
002001	014007	        AIR     0,7         ; R0 = 117 ('u')
002002	144001	        OUT     0,1
002003	002020	        LDR     0,0,16      ; R0 = 48
002004	014037	        AIR     0,31        ; R0 = 79
002005	014037	        AIR     0,31        ; R0 = 110 ('n')
002006	144001	        OUT     0,1
002007	002020	        LDR     0,0,16      ; R0 = 48
002010	014037	        AIR     0,31        ; R0 = 79
002011	014025	        AIR     0,21        ; R0 = 100 ('d')
002012	144001	        OUT     0,1
002013	002023	        LDR     0,0,19      ; R0 = 13 (CR)
002014	144001	        OUT     0,1
002015	002022	        LDR     0,0,18      ; R0 = 10 (LF)
002016	144001	        OUT     0,1
002017	000000	        HLT
