000000	000006	        Data    6
000001	000006	        Data    6
000006	000000	        Data    0           ; [6]  idx (general purpose index)
000007	000000	        Data    0           ; [7]  bufLen (total chars stored in flat buffer)
000010	000000	        Data    0           ; [8]  wordCount
000011	000000	        Data    0           ; [9]  foundFlag
000012	000000	        Data    0           ; [10] foundSent
000013	000000	        Data    0           ; [11] foundWord
000014	000000	        Data    0           ; [12] scratch (indirect address)
000015	000000	        Data    0           ; [13] wbufIdx / scratch2
000016	000000	        Data    0           ; [14] sentCount (periods seen so far in search)
000017	000062	        Data    50          ; [15] const_50
000020	000060	        Data    48          ; [16] const_48
000021	000040	        Data    32          ; [17] const_32 (space)
000022	000012	        Data    10          ; [18] const_10 (LF)
000023	000015	        Data    13          ; [19] const_13 (CR)
000024	001200	        Data    WordPrompt  ; [20] WordPrompt address
000025	000056	        Data    46          ; [21] const_46 '.'
000026	000041	        Data    33          ; [22] const_33 '!'
000027	000077	        Data    63          ; [23] const_63 '?'
000030	000764	        Data    500         ; [24] const_wbuf (word buffer base)
000031	000620	        Data    400         ; [25] const_buf  (flat text buffer base)
000032	001133	        Data    RdLp        ; [26]
000033	001330	        Data    SrLoop      ; [27] search loop target
000034	001172	        Data    PrDone      ; [28] used by RdChar for CR/LF
000035	001266	        Data    RdWord      ; [29]
000036	001314	        Data    ENDWORD     ; [30]
000037	001450	        Data    SrNoMatch   ; [31]
000620	000000	        Data    0
000621	000000	        Data    0
000622	000000	        Data    0
000623	000000	        Data    0
000624	000000	        Data    0
000625	000000	        Data    0
000626	000000	        Data    0
000627	000000	        Data    0
000630	000000	        Data    0
000631	000000	        Data    0
000632	000000	        Data    0
000633	000000	        Data    0
000634	000000	        Data    0
000635	000000	        Data    0
000636	000000	        Data    0
000637	000000	        Data    0
000640	000000	        Data    0
000641	000000	        Data    0
000642	000000	        Data    0
000643	000000	        Data    0
000644	000000	        Data    0
000645	000000	        Data    0
000646	000000	        Data    0
000647	000000	        Data    0
000650	000000	        Data    0
000651	000000	        Data    0
000652	000000	        Data    0
000653	000000	        Data    0
000654	000000	        Data    0
000655	000000	        Data    0
000656	000000	        Data    0
000657	000000	        Data    0
000660	000000	        Data    0
000661	000000	        Data    0
000662	000000	        Data    0
000663	000000	        Data    0
000664	000000	        Data    0
000665	000000	        Data    0
000666	000000	        Data    0
000667	000000	        Data    0
000670	000000	        Data    0
000671	000000	        Data    0
000672	000000	        Data    0
000673	000000	        Data    0
000674	000000	        Data    0
000675	000000	        Data    0
000676	000000	        Data    0
000677	000000	        Data    0
000700	000000	        Data    0
000701	000000	        Data    0
000702	000000	        Data    0
000703	000000	        Data    0
000704	000000	        Data    0
000705	000000	        Data    0
000706	000000	        Data    0
000707	000000	        Data    0
000710	000000	        Data    0
000711	000000	        Data    0
000712	000000	        Data    0
000713	000000	        Data    0
000714	000000	        Data    0
000715	000000	        Data    0
000716	000000	        Data    0
000717	000000	        Data    0
000720	000000	        Data    0
000721	000000	        Data    0
000722	000000	        Data    0
000723	000000	        Data    0
000724	000000	        Data    0
000725	000000	        Data    0
000726	000000	        Data    0
000727	000000	        Data    0
000730	000000	        Data    0
000731	000000	        Data    0
000732	000000	        Data    0
000733	000000	        Data    0
000734	000000	        Data    0
000735	000000	        Data    0
000736	000000	        Data    0
000737	000000	        Data    0
000740	000000	        Data    0
000741	000000	        Data    0
000742	000000	        Data    0
000743	000000	        Data    0
000744	000000	        Data    0
000745	000000	        Data    0
000746	000000	        Data    0
000747	000000	        Data    0
000750	000000	        Data    0
000751	000000	        Data    0
000752	000000	        Data    0
000753	000000	        Data    0
000754	000000	        Data    0
000755	000000	        Data    0
000756	000000	        Data    0
000757	000000	        Data    0
000760	000000	        Data    0
000761	000000	        Data    0
000762	000000	        Data    0
000763	000000	        Data    0
000764	000000	        Data    0
000765	000000	        Data    0
000766	000000	        Data    0
000767	000000	        Data    0
000770	000000	        Data    0
000771	000000	        Data    0
000772	000000	        Data    0
000773	000000	        Data    0
000774	000000	        Data    0
000775	000000	        Data    0
000776	000000	        Data    0
000777	000000	        Data    0
001000	000000	        Data    0
001001	000000	        Data    0
001002	000000	        Data    0
001003	000000	        Data    0
001004	000000	        Data    0
001005	000000	        Data    0
001006	000000	        Data    0
001007	000000	        Data    0
001010	000000	        Data    0
001011	000000	        Data    0
001012	000000	        Data    0
001013	000000	        Data    0
001014	000000	        Data    0
001015	000000	        Data    0
001016	000000	        Data    0
001017	000000	        Data    0
001020	000000	        Data    0
001021	000000	        Data    0
001130	006000	        LDA     0,0,0
001131	004006	        STR     0,0,6       ; idx = 0
001132	004007	        STR     0,0,7       ; bufLen = 0
001133	146002	        CHK     0,2
001134	006400	        LDA     1,0,0
001135	164100	        TRR     0,1
001136	102134	        LDX     1,28
001137	025500	        JCC     3,1,0       ; no input ready → PrDone
001140	142002	        IN      0,2
001141	006400	        LDA     1,0,0
001142	164100	        TRR     0,1
001143	102132	        LDX     1,26
001144	025500	        JCC     3,1,0       ; null → loop back
001145	002423	        LDR     1,0,19
001146	164100	        TRR     0,1
001147	102134	        LDX     1,28
001150	025500	        JCC     3,1,0       ; → PrDone
001151	002422	        LDR     1,0,18
001152	164100	        TRR     0,1
001153	102134	        LDX     1,28
001154	025500	        JCC     3,1,0       ; → PrDone
001155	004015	        STR     0,0,13
001156	003031	        LDR     2,0,25
001157	011006	        AMR     2,0,6
001160	005014	        STR     2,0,12
001161	102114	        LDX     1,12
001162	002015	        LDR     0,0,13
001163	004100	        STR     0,1,0
001164	144001	        OUT     0,1
001165	002006	        LDR     0,0,6
001166	014001	        AIR     0,1
001167	004006	        STR     0,0,6
001170	102132	        LDX     1,26
001171	026100	        JMA     1,0
001172	002006	        LDR     0,0,6
001173	004007	        STR     0,0,7       ; bufLen = idx
001174	006000	        LDA     0,0,0
001175	004006	        STR     0,0,6       ; idx = 0
001176	102124	        LDX     1,20
001177	026100	        JMA     1,0         ; → WordPrompt
001200	002023	        LDR     0,0,19
001201	144001	        OUT     0,1
001202	002022	        LDR     0,0,18
001203	144001	        OUT     0,1
001204	002020	        LDR     0,0,16
001205	014025	        AIR     0,21
001206	144001	        OUT     0,1
001207	002020	        LDR     0,0,16
001210	014037	        AIR     0,31
001211	014037	        AIR     0,31
001212	144001	        OUT     0,1
001213	002020	        LDR     0,0,16
001214	014037	        AIR     0,31
001215	014037	        AIR     0,31
001216	014006	        AIR     0,6
001217	144001	        OUT     0,1
001220	002020	        LDR     0,0,16
001221	014037	        AIR     0,31
001222	014026	        AIR     0,22
001223	144001	        OUT     0,1
001224	014015	        AIR     0,13
001225	144001	        OUT     0,1
001226	002021	        LDR     0,0,17
001227	144001	        OUT     0,1
001230	002020	        LDR     0,0,16
001231	014037	        AIR     0,31
001232	014037	        AIR     0,31
001233	014011	        AIR     0,9
001234	144001	        OUT     0,1
001235	002020	        LDR     0,0,16
001236	014037	        AIR     0,31
001237	014037	        AIR     0,31
001240	014001	        AIR     0,1
001241	144001	        OUT     0,1
001242	002020	        LDR     0,0,16
001243	014037	        AIR     0,31
001244	014037	        AIR     0,31
001245	014004	        AIR     0,4
001246	144001	        OUT     0,1
001247	002020	        LDR     0,0,16
001250	014037	        AIR     0,31
001251	014025	        AIR     0,21
001252	144001	        OUT     0,1
001253	002020	        LDR     0,0,16
001254	014012	        AIR     0,10
001255	144001	        OUT     0,1
001256	002023	        LDR     0,0,19
001257	144001	        OUT     0,1
001260	002022	        LDR     0,0,18
001261	144001	        OUT     0,1
001262	006000	        LDA     0,0,0
001263	004006	        STR     0,0,6       ; idx = 0
001264	102135	        LDX     1,29
001265	026100	        JMA     1,0         ; → RdWord
001266	142000	        IN      0,0
001267	002423	        LDR     1,0,19
001270	164100	        TRR     0,1
001271	102136	        LDX     1,30
001272	025500	        JCC     3,1,0       ; → ENDWORD
001273	002422	        LDR     1,0,18
001274	164100	        TRR     0,1
001275	102136	        LDX     1,30
001276	025500	        JCC     3,1,0       ; → ENDWORD
001277	144001	        OUT     0,1
001300	004015	        STR     0,0,13
001301	003030	        LDR     2,0,24
001302	011006	        AMR     2,0,6
001303	005014	        STR     2,0,12
001304	102114	        LDX     1,12
001305	002015	        LDR     0,0,13
001306	004100	        STR     0,1,0
001307	002006	        LDR     0,0,6
001310	014001	        AIR     0,1
001311	004006	        STR     0,0,6
001312	102135	        LDX     1,29
001313	026100	        JMA     1,0         ; → RdWord
001314	003030	        LDR     2,0,24
001315	011006	        AMR     2,0,6
001316	005014	        STR     2,0,12
001317	102114	        LDX     1,12
001320	006000	        LDA     0,0,0
001321	004100	        STR     0,1,0
001322	006000	        LDA     0,0,0
001323	004006	        STR     0,0,6       ; idx = 0
001324	004011	        STR     0,0,9       ; foundFlag = 0
001325	004016	        STR     0,0,14      ; sentCount = 0
001326	006001	        LDA     0,0,1
001327	004010	        STR     0,0,8       ; wordCount = 1
001330	002006	        LDR     0,0,6
001331	002407	        LDR     1,0,7
001332	164100	        TRR     0,1
001333	102124	        LDX     1,20
001334	025500	        JCC     3,1,0       ; → WordPrompt
001335	003031	        LDR     2,0,25
001336	011006	        AMR     2,0,6
001337	005014	        STR     2,0,12
001340	102114	        LDX     1,12
001341	002100	        LDR     0,1,0
001342	004015	        STR     0,0,13      ; save current char
001343	002425	        LDR     1,0,21
001344	164100	        TRR     0,1
001345	102133	        LDX     1,27
001346	025525	        JCC     3,1,SrEndSent
001347	002426	        LDR     1,0,22
001350	164100	        TRR     0,1
001351	102133	        LDX     1,27
001352	025525	        JCC     3,1,SrEndSent
001353	002427	        LDR     1,0,23
001354	164100	        TRR     0,1
001355	102133	        LDX     1,27
001356	025525	        JCC     3,1,SrEndSent
001357	002421	        LDR     1,0,17
001360	164100	        TRR     0,1
001361	102133	        LDX     1,27
001362	025515	        JCC     3,1,SrSpace
001363	006000	        LDA     0,0,0
001364	004015	        STR     0,0,13
001365	003030	        LDR     2,0,24
001366	011015	        AMR     2,0,13
001367	005014	        STR     2,0,12
001370	102114	        LDX     1,12
001371	002500	        LDR     1,1,0
001372	007000	        LDA     2,0,0
001373	164600	        TRR     1,2
001374	102133	        LDX     1,27
001375	025515	        JCC     3,1,ChkBound
001376	003006	        LDR     2,0,6
001377	011015	        AMR     2,0,13
001400	003431	        LDR     3,0,25
001401	011600	        AMR     3,2,0
001402	005414	        STR     3,0,12
001403	102214	        LDX     2,12
001404	002200	        LDR     0,2,0
001405	164100	        TRR     0,1
001406	102137	        LDX     1,31
001407	025500	        JCC     3,1,0       ; mismatch → SrNoMatch
001410	002015	        LDR     0,0,13
001411	014001	        AIR     0,1
001412	004015	        STR     0,0,13
001413	102133	        LDX     1,27
001414	026100	        JMA     1,0         ; → CmpLoop
001415	003006	        LDR     2,0,6
001416	011015	        AMR     2,0,13
001417	003431	        LDR     3,0,25
001420	011600	        AMR     3,2,0
001421	005414	        STR     3,0,12
001422	102214	        LDX     2,12
001423	002200	        LDR     0,2,0
001424	006400	        LDA     1,0,0
001425	164100	        TRR     0,1
001426	102133	        LDX     1,27
001427	025537	        JCC     3,1,Found
001430	002421	        LDR     1,0,17
001431	164100	        TRR     0,1
001432	102133	        LDX     1,27
001433	025537	        JCC     3,1,Found
001434	002425	        LDR     1,0,21
001435	164100	        TRR     0,1
001436	102133	        LDX     1,27
001437	025537	        JCC     3,1,Found
001440	002426	        LDR     1,0,22
001441	164100	        TRR     0,1
001442	102133	        LDX     1,27
001443	025537	        JCC     3,1,Found
001444	002427	        LDR     1,0,23
001445	164100	        TRR     0,1
001446	102133	        LDX     1,27
001447	025537	        JCC     3,1,Found
001450	002006	        LDR     0,0,6
001451	014001	        AIR     0,1
001452	004006	        STR     0,0,6
001453	102133	        LDX     1,27
001454	026100	        JMA     1,0         ; → SrLoop
001455	002010	        LDR     0,0,8
001456	014001	        AIR     0,1
001457	004010	        STR     0,0,8
001460	002006	        LDR     0,0,6
001461	014001	        AIR     0,1
001462	004006	        STR     0,0,6
001463	102133	        LDX     1,27
001464	026100	        JMA     1,0         ; → SrLoop
001465	002016	        LDR     0,0,14
001466	014001	        AIR     0,1
001467	004016	        STR     0,0,14
001470	006001	        LDA     0,0,1
001471	004010	        STR     0,0,8       ; reset wordCount to 1
001472	002006	        LDR     0,0,6
001473	014001	        AIR     0,1
001474	004006	        STR     0,0,6
001475	102133	        LDX     1,27
001476	026100	        JMA     1,0         ; → SrLoop
001477	006001	        LDA     0,0,1
001500	004011	        STR     0,0,9       ; foundFlag = 1
001501	002016	        LDR     0,0,14
001502	014001	        AIR     0,1
001503	004012	        STR     0,0,10      ; foundSent = sentCount + 1
001504	002010	        LDR     0,0,8
001505	004013	        STR     0,0,11      ; foundWord = wordCount
001506	002011	        LDR     0,0,9
001507	006400	        LDA     1,0,0
001510	164100	        TRR     0,1
001511	102133	        LDX     1,27
001512	025513	        JCC     3,1,NotFound
001513	002020	        LDR     0,0,16
001514	014036	        AIR     0,30
001515	144001	        OUT     0,1
001516	000000	        HLT
