000000	000006	        Data    6
000001	000006	        Data    6
000006	000000	        Data    0           ; [6]  idx
000007	000000	        Data    0           ; [7]  bufLen
000010	000000	        Data    0           ; [8]  wordCount
000011	000000	        Data    0           ; [9]  foundFlag
000012	000000	        Data    0           ; [10] foundSent
000013	000000	        Data    0           ; [11] foundWord
000014	000000	        Data    0           ; [12] scratch (pointer temp)
000015	000000	        Data    0           ; [13] wbufIdx / char scratch
000016	000000	        Data    0           ; [14] sentCount
000017	001410	        Data    ChkBound    ; [15]
000020	000060	        Data    48          ; [16] const_48
000021	000040	        Data    32          ; [17] const_32 (space)
000022	000012	        Data    10          ; [18] const_10 (LF)
000023	000015	        Data    13          ; [19] const_13 (CR)
000024	001200	        Data    WordPrompt  ; [20]
000025	000056	        Data    46          ; [21] const_46 '.'
000026	001513	        Data    NotFound    ; [22]
000027	001447	        Data    PrintResult ; [23]
000030	000764	        Data    500         ; [24] const_wbuf
000031	000620	        Data    400         ; [25] const_buf
000032	001133	        Data    RdLp        ; [26]
000033	001332	        Data    SrLoop      ; [27]
000034	001172	        Data    PrDone      ; [28]
000035	001266	        Data    RdWord      ; [29]
000036	001401	        Data    CmpLoop     ; [30]
000037	001442	        Data    SrNoMatch   ; [31]
000620	000000	        Data    0
000621	000000	        Data    0
000622	000000	        Data    0
000623	000000	        Data    0
000624	000000	        Data    0
000625	000000	        Data    0
000626	000000	        Data    0
000627	000000	        Data    0
000630	000000	        Data    0
000631	000000	        Data    0
000632	000000	        Data    0
000633	000000	        Data    0
000634	000000	        Data    0
000635	000000	        Data    0
000636	000000	        Data    0
000637	000000	        Data    0
000640	000000	        Data    0
000641	000000	        Data    0
000642	000000	        Data    0
000643	000000	        Data    0
000644	000000	        Data    0
000645	000000	        Data    0
000646	000000	        Data    0
000647	000000	        Data    0
000650	000000	        Data    0
000651	000000	        Data    0
000652	000000	        Data    0
000653	000000	        Data    0
000654	000000	        Data    0
000655	000000	        Data    0
000656	000000	        Data    0
000657	000000	        Data    0
000660	000000	        Data    0
000661	000000	        Data    0
000662	000000	        Data    0
000663	000000	        Data    0
000664	000000	        Data    0
000665	000000	        Data    0
000666	000000	        Data    0
000667	000000	        Data    0
000670	000000	        Data    0
000671	000000	        Data    0
000672	000000	        Data    0
000673	000000	        Data    0
000674	000000	        Data    0
000675	000000	        Data    0
000676	000000	        Data    0
000677	000000	        Data    0
000700	000000	        Data    0
000701	000000	        Data    0
000702	000000	        Data    0
000703	000000	        Data    0
000704	000000	        Data    0
000705	000000	        Data    0
000706	000000	        Data    0
000707	000000	        Data    0
000710	000000	        Data    0
000711	000000	        Data    0
000712	000000	        Data    0
000713	000000	        Data    0
000714	000000	        Data    0
000715	000000	        Data    0
000716	000000	        Data    0
000717	000000	        Data    0
000720	000000	        Data    0
000721	000000	        Data    0
000722	000000	        Data    0
000723	000000	        Data    0
000724	000000	        Data    0
000725	000000	        Data    0
000726	000000	        Data    0
000727	000000	        Data    0
000730	000000	        Data    0
000731	000000	        Data    0
000732	000000	        Data    0
000733	000000	        Data    0
000734	000000	        Data    0
000735	000000	        Data    0
000736	000000	        Data    0
000737	000000	        Data    0
000740	000000	        Data    0
000741	000000	        Data    0
000742	000000	        Data    0
000743	000000	        Data    0
000744	000000	        Data    0
000745	000000	        Data    0
000746	000000	        Data    0
000747	000000	        Data    0
000750	000000	        Data    0
000751	000000	        Data    0
000752	000000	        Data    0
000753	000000	        Data    0
000754	000000	        Data    0
000755	000000	        Data    0
000756	000000	        Data    0
000757	000000	        Data    0
000760	000000	        Data    0
000761	000000	        Data    0
000762	000000	        Data    0
000763	000000	        Data    0
000764	000000	        Data    0
000765	000000	        Data    0
000766	000000	        Data    0
000767	000000	        Data    0
000770	000000	        Data    0
000771	000000	        Data    0
000772	000000	        Data    0
000773	000000	        Data    0
000774	000000	        Data    0
000775	000000	        Data    0
000776	000000	        Data    0
000777	000000	        Data    0
001000	000000	        Data    0
001001	000000	        Data    0
001002	000000	        Data    0
001003	000000	        Data    0
001004	000000	        Data    0
001005	000000	        Data    0
001006	000000	        Data    0
001007	000000	        Data    0
001010	000000	        Data    0
001011	000000	        Data    0
001012	000000	        Data    0
001013	000000	        Data    0
001014	000000	        Data    0
001015	000000	        Data    0
001016	000000	        Data    0
001017	000000	        Data    0
001020	000000	        Data    0
001021	000000	        Data    0
001130	006000	        LDA     0,0,0
001131	004006	        STR     0,0,6
001132	004007	        STR     0,0,7
001133	146002	        CHK     0,2
001134	006400	        LDA     1,0,0
001135	164100	        TRR     0,1
001136	102134	        LDX     1,28
001137	025500	        JCC     3,1,0
001140	142002	        IN      0,2
001141	006400	        LDA     1,0,0
001142	164100	        TRR     0,1
001143	102132	        LDX     1,26
001144	025500	        JCC     3,1,0
001145	002423	        LDR     1,0,19
001146	164100	        TRR     0,1
001147	102134	        LDX     1,28
001150	025500	        JCC     3,1,0
001151	002422	        LDR     1,0,18
001152	164100	        TRR     0,1
001153	102134	        LDX     1,28
001154	025500	        JCC     3,1,0
001155	004015	        STR     0,0,13
001156	003031	        LDR     2,0,25
001157	011006	        AMR     2,0,6
001160	005014	        STR     2,0,12
001161	102114	        LDX     1,12
001162	002015	        LDR     0,0,13
001163	004100	        STR     0,1,0
001164	144001	        OUT     0,1
001165	002006	        LDR     0,0,6
001166	014001	        AIR     0,1
001167	004006	        STR     0,0,6
001170	102132	        LDX     1,26
001171	026100	        JMA     1,0
001172	002006	        LDR     0,0,6
001173	004007	        STR     0,0,7
001174	006000	        LDA     0,0,0
001175	004006	        STR     0,0,6
001176	102124	        LDX     1,20
001177	026100	        JMA     1,0
001200	002023	        LDR     0,0,19
001201	144001	        OUT     0,1
001202	002022	        LDR     0,0,18
001203	144001	        OUT     0,1
001204	002020	        LDR     0,0,16
001205	014025	        AIR     0,21
001206	144001	        OUT     0,1
001207	002020	        LDR     0,0,16
001210	014037	        AIR     0,31
001211	014037	        AIR     0,31
001212	144001	        OUT     0,1
001213	002020	        LDR     0,0,16
001214	014037	        AIR     0,31
001215	014037	        AIR     0,31
001216	014006	        AIR     0,6
001217	144001	        OUT     0,1
001220	002020	        LDR     0,0,16
001221	014037	        AIR     0,31
001222	014026	        AIR     0,22
001223	144001	        OUT     0,1
001224	014015	        AIR     0,13
001225	144001	        OUT     0,1
001226	002021	        LDR     0,0,17
001227	144001	        OUT     0,1
001230	002020	        LDR     0,0,16
001231	014037	        AIR     0,31
001232	014037	        AIR     0,31
001233	014011	        AIR     0,9
001234	144001	        OUT     0,1
001235	002020	        LDR     0,0,16
001236	014037	        AIR     0,31
001237	014037	        AIR     0,31
001240	014001	        AIR     0,1
001241	144001	        OUT     0,1
001242	002020	        LDR     0,0,16
001243	014037	        AIR     0,31
001244	014037	        AIR     0,31
001245	014004	        AIR     0,4
001246	144001	        OUT     0,1
001247	002020	        LDR     0,0,16
001250	014037	        AIR     0,31
001251	014025	        AIR     0,21
001252	144001	        OUT     0,1
001253	002020	        LDR     0,0,16
001254	014012	        AIR     0,10
001255	144001	        OUT     0,1
001256	002023	        LDR     0,0,19
001257	144001	        OUT     0,1
001260	002022	        LDR     0,0,18
001261	144001	        OUT     0,1
001262	006000	        LDA     0,0,0
001263	004006	        STR     0,0,6
001264	102135	        LDX     1,29
001265	026100	        JMA     1,0
001266	142000	        IN      0,0
001267	002423	        LDR     1,0,19
001270	164100	        TRR     0,1
001271	102136	        LDX     1,30
001272	025500	        JCC     3,1,0
001273	002422	        LDR     1,0,18
001274	164100	        TRR     0,1
001275	102136	        LDX     1,30
001276	025500	        JCC     3,1,0
001277	144001	        OUT     0,1
001300	004015	        STR     0,0,13
001301	003030	        LDR     2,0,24
001302	011006	        AMR     2,0,6
001303	005014	        STR     2,0,12
001304	102114	        LDX     1,12
001305	002015	        LDR     0,0,13
001306	004100	        STR     0,1,0
001307	002006	        LDR     0,0,6
001310	014001	        AIR     0,1
001311	004006	        STR     0,0,6
001312	102135	        LDX     1,29
001313	026100	        JMA     1,0
001314	003030	        LDR     2,0,24
001315	011006	        AMR     2,0,6
001316	005014	        STR     2,0,12
001317	102114	        LDX     1,12
001320	006000	        LDA     0,0,0
001321	004100	        STR     0,1,0
001322	006000	        LDA     0,0,0
001323	004006	        STR     0,0,6
001324	004011	        STR     0,0,9
001325	004016	        STR     0,0,14
001326	006001	        LDA     0,0,1
001327	004010	        STR     0,0,8
001330	102133	        LDX     1,27
001331	026100	        JMA     1,0             ; → SrLoop
001332	002006	        LDR     0,0,6
001333	002407	        LDR     1,0,7
001334	012400	        SMR     1,0,0
001335	102227	        LDX     2,23
001336	024600	        JCC     1,2,0           ; idx == bufLen → PrintResult
001337	003031	        LDR     2,0,25
001340	011006	        AMR     2,0,6
001341	005014	        STR     2,0,12
001342	102114	        LDX     1,12
001343	002100	        LDR     0,1,0
001344	004015	        STR     0,0,13          ; save char to address 13
001345	002015	        LDR     0,0,13
001346	012025	        SMR     0,0,21          ; r0 = char - '.'
001347	102233	        LDX     2,27
001350	022200	        JNE     0,2,0           ; not '.', skip to space check
001351	002016	        LDR     0,0,14
001352	014001	        AIR     0,1
001353	004016	        STR     0,0,14
001354	006001	        LDA     0,0,1
001355	004010	        STR     0,0,8
001356	002006	        LDR     0,0,6
001357	014001	        AIR     0,1
001360	004006	        STR     0,0,6
001361	102233	        LDX     2,27
001362	026200	        JMA     2,0             ; → SrLoop
001363	002015	        LDR     0,0,13
001364	012021	        SMR     0,0,17          ; r0 = char - space
001365	102233	        LDX     2,27
001366	022200	        JNE     0,2,0           ; not space, skip to word compare
001367	002010	        LDR     0,0,8
001370	014001	        AIR     0,1
001371	004010	        STR     0,0,8
001372	002006	        LDR     0,0,6
001373	014001	        AIR     0,1
001374	004006	        STR     0,0,6
001375	102233	        LDX     2,27
001376	026200	        JMA     2,0             ; → SrLoop
001377	006000	        LDA     0,0,0
001400	004015	        STR     0,0,13
001401	003030	        LDR     2,0,24
001402	011015	        AMR     2,0,13
001403	005014	        STR     2,0,12
001404	102114	        LDX     1,12
001405	002500	        LDR     1,1,0
001406	102217	        LDX     2,15
001407	022600	        JNE     1,2,0           ; if r1 != 0, jump past ChkBound to comparison
001410	006001	        LDA     0,0,1
001411	004011	        STR     0,0,9
001412	002016	        LDR     0,0,14
001413	014001	        AIR     0,1
001414	004012	        STR     0,0,10
001415	002010	        LDR     0,0,8
001416	004013	        STR     0,0,11
001417	002006	        LDR     0,0,6
001420	014001	        AIR     0,1
001421	004006	        STR     0,0,6
001422	102227	        LDX     2,23
001423	026200	        JMA     2,0             ; → PrintResult
001424	003031	        LDR     2,0,25
001425	011006	        AMR     2,0,6
001426	011015	        AMR     2,0,13
001427	005014	        STR     2,0,12
001430	102214	        LDX     2,12
001431	002200	        LDR     0,2,0
001432	164100	        TRR     0,1
001433	102237	        LDX     2,31
001434	025600	        JCC     3,2,0
001435	002015	        LDR     0,0,13
001436	014001	        AIR     0,1
001437	004015	        STR     0,0,13
001440	102236	        LDX     2,30
001441	026200	        JMA     2,0             ; → CmpLoop
001442	002006	        LDR     0,0,6
001443	014001	        AIR     0,1
001444	004006	        STR     0,0,6
001445	102233	        LDX     2,27
001446	026200	        JMA     2,0             ; → SrLoop
001447	002011	        LDR     0,0,9
001450	006400	        LDA     1,0,0
001451	164100	        TRR     0,1
001452	102126	        LDX     1,22
001453	025500	        JCC     3,1,0           ; foundFlag == 0 → NotFound
001454	002023	        LDR     0,0,19
001455	144001	        OUT     0,1
001456	002022	        LDR     0,0,18
001457	144001	        OUT     0,1
001460	002020	        LDR     0,0,16
001461	014037	        AIR     0,31
001462	014004	        AIR     0,4
001463	144001	        OUT     0,1
001464	002025	        LDR     0,0,21
001465	014014	        AIR     0,12
001466	144001	        OUT     0,1
001467	002012	        LDR     0,0,10
001470	010020	        AMR     0,0,16
001471	144001	        OUT     0,1
001472	002021	        LDR     0,0,17
001473	144001	        OUT     0,1
001474	002020	        LDR     0,0,16
001475	014037	        AIR     0,31
001476	014010	        AIR     0,8
001477	144001	        OUT     0,1
001500	002025	        LDR     0,0,21
001501	014014	        AIR     0,12
001502	144001	        OUT     0,1
001503	002013	        LDR     0,0,11
001504	010020	        AMR     0,0,16
001505	144001	        OUT     0,1
001506	002022	        LDR     0,0,18
001507	144001	        OUT     0,1
001510	002023	        LDR     0,0,19
001511	144001	        OUT     0,1
001512	000000	        HLT
001513	002023	        LDR     0,0,19
001514	144001	        OUT     0,1
001515	002022	        LDR     0,0,18
001516	144001	        OUT     0,1
001517	002020	        LDR     0,0,16
001520	014036	        AIR     0,30
001521	144001	        OUT     0,1
001522	000000	        HLT
